target datalayout = "e-m:e-p270:32:32-p271:32:32-p272:64:64-i64:64-i128:128-f80:128-n8:16:32:64-S128"
target triple = "x86_64-pc-linux-gnu"

%"class.osgeo::proj::common::UnitOfMeasure" = type { %"class.osgeo::proj::util::BaseObject", %"class.std::unique_ptr.26" }
%"class.osgeo::proj::util::BaseObject" = type { ptr, %"class.std::unique_ptr" }
%"class.std::unique_ptr" = type { %"struct.std::__uniq_ptr_data" }
%"struct.std::__uniq_ptr_data" = type { %"class.std::__uniq_ptr_impl" }
%"class.std::__uniq_ptr_impl" = type { %"class.std::tuple" }
%"class.std::tuple" = type { %"struct.std::_Tuple_impl" }
%"struct.std::_Tuple_impl" = type { %"struct.std::_Head_base.1" }
%"struct.std::_Head_base.1" = type { ptr }
%"class.std::unique_ptr.26" = type { %"struct.std::__uniq_ptr_data.27" }
%"struct.std::__uniq_ptr_data.27" = type { %"class.std::__uniq_ptr_impl.28" }
%"class.std::__uniq_ptr_impl.28" = type { %"class.std::tuple.29" }
%"class.std::tuple.29" = type { %"struct.std::_Tuple_impl.30" }
%"struct.std::_Tuple_impl.30" = type { %"struct.std::_Head_base.33" }
%"struct.std::_Head_base.33" = type { ptr }
%"class.std::__cxx11::basic_string" = type { %"struct.std::__cxx11::basic_string<char>::_Alloc_hider", i64, %union.anon }
%"struct.std::__cxx11::basic_string<char>::_Alloc_hider" = type { ptr }
%union.anon = type { i64, [8 x i8] }
%"class.osgeo::proj::coordinates::CoordinateMetadata" = type { %"class.osgeo::proj::util::BaseObject", %"class.osgeo::proj::io::IWKTExportable", %"class.osgeo::proj::io::IJSONExportable", %"class.std::unique_ptr.2" }
%"class.osgeo::proj::io::IWKTExportable" = type { ptr }
%"class.osgeo::proj::io::IJSONExportable" = type { ptr }
%"class.std::unique_ptr.2" = type { %"struct.std::__uniq_ptr_data.3" }
%"struct.std::__uniq_ptr_data.3" = type { %"class.std::__uniq_ptr_impl.4" }
%"class.std::__uniq_ptr_impl.4" = type { %"class.std::tuple.5" }
%"class.std::tuple.5" = type { %"struct.std::_Tuple_impl.6" }
%"struct.std::_Tuple_impl.6" = type { %"struct.std::_Head_base.9" }
%"struct.std::_Head_base.9" = type { ptr }
%"class.osgeo::proj::common::DataEpoch" = type { %"class.std::unique_ptr.10" }
%"class.std::unique_ptr.10" = type { %"struct.std::__uniq_ptr_data.11" }
%"struct.std::__uniq_ptr_data.11" = type { %"class.std::__uniq_ptr_impl.12" }
%"class.std::__uniq_ptr_impl.12" = type { %"class.std::tuple.13" }
%"class.std::tuple.13" = type { %"struct.std::_Tuple_impl.14" }
%"struct.std::_Tuple_impl.14" = type { %"struct.std::_Head_base.17" }
%"struct.std::_Head_base.17" = type { ptr }
%"class.std::__shared_count" = type { ptr }
%"class.dropbox::oxygen::nn" = type { %"class.std::shared_ptr" }
%"class.std::shared_ptr" = type { %"class.std::__shared_ptr" }
%"class.std::__shared_ptr" = type { ptr, %"class.std::__shared_count" }
%"struct.osgeo::proj::coordinates::CoordinateMetadata::Private" = type { %"class.dropbox::oxygen::nn", %"class.osgeo::proj::util::optional" }
%"class.osgeo::proj::util::optional" = type { i8, %"class.osgeo::proj::common::DataEpoch" }

@_ZN5osgeo4proj6common13UnitOfMeasure4YEARE = external global %"class.osgeo::proj::common::UnitOfMeasure", align 8
@.str.2 = private unnamed_addr constant [56 x i8] c"CoordinateMetadata can only be exported since WKT2:2019\00", align 1
@_ZN5osgeo4proj2io12WKTConstants18COORDINATEMETADATAB5cxx11E = external global %"class.std::__cxx11::basic_string", align 8
@_ZN5osgeo4proj2io12WKTConstants5EPOCHB5cxx11E = external global %"class.std::__cxx11::basic_string", align 8

; Function Attrs: mustprogress nounwind uwtable
define linkonce_odr hidden noundef nonnull align 8 dereferenceable(8) ptr @_ZNSt10_Head_baseILm0EPN5osgeo4proj11coordinates18CoordinateMetadata7PrivateELb0EE7_M_headERKS6_(ptr noundef nonnull align 8 dereferenceable(8) %0) #2 comdat align 2 {
  %2 = alloca ptr, align 8
  store ptr %0, ptr %2, align 8
  %3 = load ptr, ptr %2, align 8
  %4 = getelementptr inbounds %"struct.std::_Head_base.9", ptr %3, i32 0, i32 0
  ret ptr %4
}

; Function Attrs: mustprogress nounwind uwtable
define linkonce_odr hidden noundef nonnull align 8 dereferenceable(8) ptr @_ZNSt11_Tuple_implILm0EJPN5osgeo4proj11coordinates18CoordinateMetadata7PrivateESt14default_deleteIS4_EEE7_M_headERKS8_(ptr noundef nonnull align 8 dereferenceable(8) %0) #2 comdat align 2 {
  %2 = alloca ptr, align 8
  store ptr %0, ptr %2, align 8
  %3 = load ptr, ptr %2, align 8
  %4 = call noundef nonnull align 8 dereferenceable(8) ptr @_ZNSt10_Head_baseILm0EPN5osgeo4proj11coordinates18CoordinateMetadata7PrivateELb0EE7_M_headERKS6_(ptr noundef nonnull align 8 dereferenceable(8) %3) #13
  ret ptr %4
}

; Function Attrs: mustprogress nounwind uwtable
define linkonce_odr hidden noundef nonnull align 8 dereferenceable(8) ptr @_ZSt12__get_helperILm0EPN5osgeo4proj11coordinates18CoordinateMetadata7PrivateEJSt14default_deleteIS4_EEERKT0_RKSt11_Tuple_implIXT_EJS8_DpT1_EE(ptr noundef nonnull align 8 dereferenceable(8) %0) #2 comdat {
  %2 = alloca ptr, align 8
  store ptr %0, ptr %2, align 8
  %3 = load ptr, ptr %2, align 8
  %4 = call noundef nonnull align 8 dereferenceable(8) ptr @_ZNSt11_Tuple_implILm0EJPN5osgeo4proj11coordinates18CoordinateMetadata7PrivateESt14default_deleteIS4_EEE7_M_headERKS8_(ptr noundef nonnull align 8 dereferenceable(8) %3) #13
  ret ptr %4
}

; Function Attrs: mustprogress nounwind uwtable
define linkonce_odr hidden noundef nonnull align 8 dereferenceable(8) ptr @_ZSt3getILm0EJPN5osgeo4proj11coordinates18CoordinateMetadata7PrivateESt14default_deleteIS4_EEERKNSt13tuple_elementIXT_ESt5tupleIJDpT0_EEE4typeERKSC_(ptr noundef nonnull align 8 dereferenceable(8) %0) #2 comdat {
  %2 = alloca ptr, align 8
  store ptr %0, ptr %2, align 8
  %3 = load ptr, ptr %2, align 8
  %4 = call noundef nonnull align 8 dereferenceable(8) ptr @_ZSt12__get_helperILm0EPN5osgeo4proj11coordinates18CoordinateMetadata7PrivateEJSt14default_deleteIS4_EEERKT0_RKSt11_Tuple_implIXT_EJS8_DpT1_EE(ptr noundef nonnull align 8 dereferenceable(8) %3) #13
  ret ptr %4
}

; Function Attrs: mustprogress nounwind uwtable
define linkonce_odr noundef ptr @_ZNKSt12__shared_ptrIN5osgeo4proj3crs3CRSELN9__gnu_cxx12_Lock_policyE2EE3getEv(ptr noundef nonnull align 8 dereferenceable(16) %0) #2 comdat align 2 {
  %2 = alloca ptr, align 8
  store ptr %0, ptr %2, align 8
  %3 = load ptr, ptr %2, align 8
  %4 = getelementptr inbounds %"class.std::__shared_ptr", ptr %3, i32 0, i32 0
  %5 = load ptr, ptr %4, align 8
  ret ptr %5
}

; Function Attrs: mustprogress nounwind uwtable
define linkonce_odr hidden noundef ptr @_ZNKSt15__uniq_ptr_implIN5osgeo4proj11coordinates18CoordinateMetadata7PrivateESt14default_deleteIS4_EE6_M_ptrEv(ptr noundef nonnull align 8 dereferenceable(8) %0) #2 comdat align 2 {
  %2 = alloca ptr, align 8
  store ptr %0, ptr %2, align 8
  %3 = load ptr, ptr %2, align 8
  %4 = getelementptr inbounds %"class.std::__uniq_ptr_impl.4", ptr %3, i32 0, i32 0
  %5 = call noundef nonnull align 8 dereferenceable(8) ptr @_ZSt3getILm0EJPN5osgeo4proj11coordinates18CoordinateMetadata7PrivateESt14default_deleteIS4_EEERKNSt13tuple_elementIXT_ESt5tupleIJDpT0_EEE4typeERKSC_(ptr noundef nonnull align 8 dereferenceable(8) %4) #13
  %6 = load ptr, ptr %5, align 8
  ret ptr %6
}

; Function Attrs: mustprogress nounwind uwtable
define linkonce_odr noundef ptr @_ZNKSt19__shared_ptr_accessIN5osgeo4proj3crs3CRSELN9__gnu_cxx12_Lock_policyE2ELb0ELb0EE6_M_getEv(ptr noundef nonnull align 1 dereferenceable(1) %0) #2 comdat align 2 {
  %2 = alloca ptr, align 8
  store ptr %0, ptr %2, align 8
  %3 = load ptr, ptr %2, align 8
  %4 = call noundef ptr @_ZNKSt12__shared_ptrIN5osgeo4proj3crs3CRSELN9__gnu_cxx12_Lock_policyE2EE3getEv(ptr noundef nonnull align 8 dereferenceable(16) %3) #13
  ret ptr %4
}

; Function Attrs: mustprogress nounwind uwtable
define linkonce_odr noundef double @_ZNSt14numeric_limitsIdE9quiet_NaNEv() #2 comdat align 2 {
  ret double 0x7FF8000000000000
}

; Function Attrs: mustprogress nounwind uwtable
define linkonce_odr hidden noundef ptr @_ZN5osgeo4proj4util8optionalINS0_6common9DataEpochEEptEv(ptr noundef nonnull align 8 dereferenceable(16) %0) #2 comdat align 2 {
  %2 = alloca ptr, align 8
  store ptr %0, ptr %2, align 8
  %3 = load ptr, ptr %2, align 8
  %4 = getelementptr inbounds %"class.osgeo::proj::util::optional", ptr %3, i32 0, i32 1
  ret ptr %4
}

; Function Attrs: mustprogress nounwind uwtable
define linkonce_odr hidden noundef ptr @_ZNKSt10unique_ptrIN5osgeo4proj11coordinates18CoordinateMetadata7PrivateESt14default_deleteIS4_EE3getEv(ptr noundef nonnull align 8 dereferenceable(8) %0) #2 comdat align 2 {
  %2 = alloca ptr, align 8
  store ptr %0, ptr %2, align 8
  %3 = load ptr, ptr %2, align 8
  %4 = getelementptr inbounds %"class.std::unique_ptr.2", ptr %3, i32 0, i32 0
  %5 = call noundef ptr @_ZNKSt15__uniq_ptr_implIN5osgeo4proj11coordinates18CoordinateMetadata7PrivateESt14default_deleteIS4_EE6_M_ptrEv(ptr noundef nonnull align 8 dereferenceable(8) %4) #13
  ret ptr %5
}

; Function Attrs: mustprogress nounwind uwtable
define linkonce_odr noundef nonnull align 8 dereferenceable(64) ptr @_ZNKSt19__shared_ptr_accessIN5osgeo4proj3crs3CRSELN9__gnu_cxx12_Lock_policyE2ELb0ELb0EEdeEv(ptr noundef nonnull align 1 dereferenceable(1) %0) #2 comdat align 2 {
  %2 = alloca ptr, align 8
  store ptr %0, ptr %2, align 8
  %3 = load ptr, ptr %2, align 8
  br label %4

4:                                                ; preds = %1
  br label %5

5:                                                ; preds = %4
  br label %6

6:                                                ; preds = %5
  %7 = call noundef ptr @_ZNKSt19__shared_ptr_accessIN5osgeo4proj3crs3CRSELN9__gnu_cxx12_Lock_policyE2ELb0ELb0EE6_M_getEv(ptr noundef nonnull align 1 dereferenceable(1) %3) #13
  ret ptr %7
}

; Function Attrs: mustprogress nounwind willreturn memory(read) uwtable
define noundef double @_ZNK5osgeo4proj11coordinates18CoordinateMetadata28coordinateEpochAsDecimalYearEv(ptr noundef nonnull align 8 dereferenceable(40) %0) #6 align 2 personality ptr @__gxx_personality_v0 {
  %2 = alloca double, align 8
  %3 = alloca ptr, align 8
  store ptr %0, ptr %3, align 8
  %4 = load ptr, ptr %3, align 8
  %5 = getelementptr inbounds %"class.osgeo::proj::coordinates::CoordinateMetadata", ptr %4, i32 0, i32 3
  %6 = call noundef ptr @_ZNKSt10unique_ptrIN5osgeo4proj11coordinates18CoordinateMetadata7PrivateESt14default_deleteIS4_EEptEv(ptr noundef nonnull align 8 dereferenceable(8) %5) #13
  %7 = getelementptr inbounds %"struct.osgeo::proj::coordinates::CoordinateMetadata::Private", ptr %6, i32 0, i32 1
  %8 = call noundef zeroext i1 @_ZNK5osgeo4proj4util8optionalINS0_6common9DataEpochEE9has_valueEv(ptr noundef nonnull align 8 dereferenceable(16) %7) #13
  br i1 %8, label %9, label %20

9:                                                ; preds = %1
  %10 = getelementptr inbounds %"class.osgeo::proj::coordinates::CoordinateMetadata", ptr %4, i32 0, i32 3
  %11 = call noundef ptr @_ZNKSt10unique_ptrIN5osgeo4proj11coordinates18CoordinateMetadata7PrivateESt14default_deleteIS4_EEptEv(ptr noundef nonnull align 8 dereferenceable(8) %10) #13
  %12 = getelementptr inbounds %"struct.osgeo::proj::coordinates::CoordinateMetadata::Private", ptr %11, i32 0, i32 1
  %13 = invoke noundef ptr @_ZN5osgeo4proj4util8optionalINS0_6common9DataEpochEEptEv(ptr noundef nonnull align 8 dereferenceable(16) %12)
          to label %14 unwind label %24

14:                                               ; preds = %9
  %15 = invoke noundef nonnull align 8 dereferenceable(24) ptr @_ZNK5osgeo4proj6common9DataEpoch15coordinateEpochEv(ptr noundef nonnull align 8 dereferenceable(8) %13)
          to label %16 unwind label %24

16:                                               ; preds = %14
  %17 = call noundef double @_ZNK5osgeo4proj6common7Measure13convertToUnitERKNS1_13UnitOfMeasureE(ptr noundef nonnull align 8 dereferenceable(24) %15, ptr noundef nonnull align 8 dereferenceable(24) @_ZN5osgeo4proj6common13UnitOfMeasure4YEARE) #18
  %18 = invoke noundef double @_ZN5osgeo4proj8internal28getRoundedEpochInDecimalYearEd(double noundef %17)
          to label %19 unwind label %24

19:                                               ; preds = %16
  store double %18, ptr %2, align 8
  br label %22

20:                                               ; preds = %1
  %21 = call noundef double @_ZNSt14numeric_limitsIdE9quiet_NaNEv() #13
  store double %21, ptr %2, align 8
  br label %22

22:                                               ; preds = %20, %19
  %23 = load double, ptr %2, align 8
  ret double %23

24:                                               ; preds = %16, %14, %9
  %25 = landingpad { ptr, i32 }
          catch ptr null
  %26 = extractvalue { ptr, i32 } %25, 0
  call void @__clang_call_terminate(ptr %26) #16
  unreachable
}

; Function Attrs: mustprogress nounwind uwtable
define linkonce_odr hidden noundef zeroext i1 @_ZNK5osgeo4proj4util8optionalINS0_6common9DataEpochEE9has_valueEv(ptr noundef nonnull align 8 dereferenceable(16) %0) #2 comdat align 2 {
  %2 = alloca ptr, align 8
  store ptr %0, ptr %2, align 8
  %3 = load ptr, ptr %2, align 8
  %4 = getelementptr inbounds %"class.osgeo::proj::util::optional", ptr %3, i32 0, i32 0
  %5 = load i8, ptr %4, align 8
  %6 = trunc i8 %5 to i1
  ret i1 %6
}

; Function Attrs: mustprogress nounwind uwtable
define linkonce_odr hidden noundef ptr @_ZNKSt10unique_ptrIN5osgeo4proj11coordinates18CoordinateMetadata7PrivateESt14default_deleteIS4_EEptEv(ptr noundef nonnull align 8 dereferenceable(8) %0) #2 comdat align 2 {
  %2 = alloca ptr, align 8
  store ptr %0, ptr %2, align 8
  %3 = load ptr, ptr %2, align 8
  %4 = call noundef ptr @_ZNKSt10unique_ptrIN5osgeo4proj11coordinates18CoordinateMetadata7PrivateESt14default_deleteIS4_EE3getEv(ptr noundef nonnull align 8 dereferenceable(8) %3) #13
  ret ptr %4
}

; Function Attrs: mustprogress nounwind uwtable
define linkonce_odr hidden noundef ptr @_ZNK7dropbox6oxygen2nnISt10shared_ptrIN5osgeo4proj3crs3CRSEEEptEv(ptr noundef nonnull align 8 dereferenceable(16) %0) #2 comdat align 2 {
  %2 = alloca ptr, align 8
  store ptr %0, ptr %2, align 8
  %3 = load ptr, ptr %2, align 8
  %4 = getelementptr inbounds %"class.dropbox::oxygen::nn", ptr %3, i32 0, i32 0
  %5 = call noundef nonnull align 8 dereferenceable(64) ptr @_ZNKSt19__shared_ptr_accessIN5osgeo4proj3crs3CRSELN9__gnu_cxx12_Lock_policyE2ELb0ELb0EEdeEv(ptr noundef nonnull align 1 dereferenceable(1) %4) #13
  ret ptr %5
}

; Function Attrs: mustprogress nounwind willreturn memory(read) uwtable
define noundef nonnull align 8 dereferenceable(16) ptr @_ZNK5osgeo4proj11coordinates18CoordinateMetadata3crsEv(ptr noundef nonnull align 8 dereferenceable(40) %0) #6 align 2 {
  %2 = alloca ptr, align 8
  store ptr %0, ptr %2, align 8
  %3 = load ptr, ptr %2, align 8
  %4 = getelementptr inbounds %"class.osgeo::proj::coordinates::CoordinateMetadata", ptr %3, i32 0, i32 3
  %5 = call noundef ptr @_ZNKSt10unique_ptrIN5osgeo4proj11coordinates18CoordinateMetadata7PrivateESt14default_deleteIS4_EEptEv(ptr noundef nonnull align 8 dereferenceable(8) %4) #13
  %6 = getelementptr inbounds %"struct.osgeo::proj::coordinates::CoordinateMetadata::Private", ptr %5, i32 0, i32 0
  ret ptr %6
}

; Function Attrs: mustprogress uwtable
define hidden void @_ZNK5osgeo4proj11coordinates18CoordinateMetadata12_exportToWKTEPNS0_2io12WKTFormatterE(ptr noundef nonnull align 8 dereferenceable(40) %0, ptr noundef %1) unnamed_addr #0 align 2 {
  %3 = alloca ptr, align 8
  %4 = alloca ptr, align 8
  store ptr %0, ptr %3, align 8
  store ptr %1, ptr %4, align 8
  %5 = load ptr, ptr %3, align 8
  %6 = load ptr, ptr %4, align 8
  %7 = call noundef i32 @_ZNK5osgeo4proj2io12WKTFormatter7versionEv(ptr noundef nonnull align 8 dereferenceable(8) %6)
  %8 = icmp ne i32 %7, 1
  br i1 %8, label %12, label %9

9:                                                ; preds = %2
  %10 = load ptr, ptr %4, align 8
  %11 = call noundef zeroext i1 @_ZNK5osgeo4proj2io12WKTFormatter15use2019KeywordsEv(ptr noundef nonnull align 8 dereferenceable(8) %10)
  br i1 %11, label %13, label %12

12:                                               ; preds = %9, %2
  call void @_ZN5osgeo4proj2io19FormattingException5ThrowEPKc(ptr noundef @.str.2) #17
  unreachable

13:                                               ; preds = %9
  %14 = load ptr, ptr %4, align 8
  call void @_ZN5osgeo4proj2io12WKTFormatter9startNodeERKNSt7__cxx1112basic_stringIcSt11char_traitsIcESaIcEEEb(ptr noundef nonnull align 8 dereferenceable(8) %14, ptr noundef nonnull align 8 dereferenceable(32) @_ZN5osgeo4proj2io12WKTConstants18COORDINATEMETADATAB5cxx11E, i1 noundef zeroext false)
  %15 = call noundef nonnull align 8 dereferenceable(16) ptr @_ZNK5osgeo4proj11coordinates18CoordinateMetadata3crsEv(ptr noundef nonnull align 8 dereferenceable(40) %5) #18
  %16 = call noundef ptr @_ZNK7dropbox6oxygen2nnISt10shared_ptrIN5osgeo4proj3crs3CRSEEEptEv(ptr noundef nonnull align 8 dereferenceable(16) %15)
  %17 = getelementptr inbounds i8, ptr %16, i64 24
  %18 = load ptr, ptr %4, align 8
  %19 = load ptr, ptr %17, align 8
  %20 = getelementptr inbounds ptr, ptr %19, i64 2
  %21 = load ptr, ptr %20, align 8
  call void %21(ptr noundef nonnull align 8 dereferenceable(8) %17, ptr noundef %18)
  %22 = getelementptr inbounds %"class.osgeo::proj::coordinates::CoordinateMetadata", ptr %5, i32 0, i32 3
  %23 = call noundef ptr @_ZNKSt10unique_ptrIN5osgeo4proj11coordinates18CoordinateMetadata7PrivateESt14default_deleteIS4_EEptEv(ptr noundef nonnull align 8 dereferenceable(8) %22) #13
  %24 = getelementptr inbounds %"struct.osgeo::proj::coordinates::CoordinateMetadata::Private", ptr %23, i32 0, i32 1
  %25 = call noundef zeroext i1 @_ZNK5osgeo4proj4util8optionalINS0_6common9DataEpochEE9has_valueEv(ptr noundef nonnull align 8 dereferenceable(16) %24) #13
  br i1 %25, label %26, label %31

26:                                               ; preds = %13
  %27 = load ptr, ptr %4, align 8
  call void @_ZN5osgeo4proj2io12WKTFormatter9startNodeERKNSt7__cxx1112basic_stringIcSt11char_traitsIcESaIcEEEb(ptr noundef nonnull align 8 dereferenceable(8) %27, ptr noundef nonnull align 8 dereferenceable(32) @_ZN5osgeo4proj2io12WKTConstants5EPOCHB5cxx11E, i1 noundef zeroext false)
  %28 = load ptr, ptr %4, align 8
  %29 = call noundef double @_ZNK5osgeo4proj11coordinates18CoordinateMetadata28coordinateEpochAsDecimalYearEv(ptr noundef nonnull align 8 dereferenceable(40) %5) #18
  call void @_ZN5osgeo4proj2io12WKTFormatter3addEdi(ptr noundef nonnull align 8 dereferenceable(8) %28, double noundef %29, i32 noundef 15)
  %30 = load ptr, ptr %4, align 8
  call void @_ZN5osgeo4proj2io12WKTFormatter7endNodeEv(ptr noundef nonnull align 8 dereferenceable(8) %30)
  br label %31

31:                                               ; preds = %26, %13
  %32 = load ptr, ptr %4, align 8
  call void @_ZN5osgeo4proj2io12WKTFormatter7endNodeEv(ptr noundef nonnull align 8 dereferenceable(8) %32)
  ret void
}