; Function Attrs: mustprogress uwtable
define hidden void @_ZNK5osgeo4proj11coordinates18CoordinateMetadata12_exportToWKTEPNS0_2io12WKTFormatterE(ptr nocapture noundef nonnull readonly align 8 dereferenceable(40) %0, ptr noundef nonnull %1) unnamed_addr #0 align 2 personality ptr @__gxx_personality_v0 {
  %3 = tail call noundef i32 @_ZNK5osgeo4proj2io12WKTFormatter7versionEv(ptr noundef nonnull align 8 dereferenceable(8) %1)
  %.not = icmp eq i32 %3, 1
  br i1 %.not, label %4, label %6

4:                                                ; preds = %2
  %5 = tail call noundef zeroext i1 @_ZNK5osgeo4proj2io12WKTFormatter15use2019KeywordsEv(ptr noundef nonnull align 8 dereferenceable(8) %1)
  br i1 %5, label %7, label %6

6:                                                ; preds = %4, %2
  tail call void @_ZN5osgeo4proj2io19FormattingException5ThrowEPKc(ptr noundef nonnull @.str.2) #18
  unreachable

7:                                                ; preds = %4
  tail call void @_ZN5osgeo4proj2io12WKTFormatter9startNodeERKNSt7__cxx1112basic_stringIcSt11char_traitsIcESaIcEEEb(ptr noundef nonnull align 8 dereferenceable(8) %1, ptr noundef nonnull align 8 dereferenceable(32) @_ZN5osgeo4proj2io12WKTConstants18COORDINATEMETADATAB5cxx11E, i1 noundef zeroext false)
  %8 = getelementptr inbounds i8, ptr %0, i64 32
  %9 = load ptr, ptr %8, align 8
  %10 = load ptr, ptr %9, align 8
  %11 = getelementptr inbounds i8, ptr %10, i64 24
  %12 = load ptr, ptr %11, align 8
  %13 = getelementptr inbounds i8, ptr %12, i64 16
  %14 = load ptr, ptr %13, align 8
  tail call void %14(ptr noundef nonnull align 8 dereferenceable(8) %11, ptr noundef nonnull %1)
  %15 = load ptr, ptr %8, align 8
  %16 = getelementptr inbounds i8, ptr %15, i64 16
  %17 = load i8, ptr %16, align 8
  %18 = trunc i8 %17 to i1
  br i1 %18, label %19, label %33

19:                                               ; preds = %7
  tail call void @_ZN5osgeo4proj2io12WKTFormatter9startNodeERKNSt7__cxx1112basic_stringIcSt11char_traitsIcESaIcEEEb(ptr noundef nonnull align 8 dereferenceable(8) %1, ptr noundef nonnull align 8 dereferenceable(32) @_ZN5osgeo4proj2io12WKTConstants5EPOCHB5cxx11E, i1 noundef zeroext false)
  %20 = load ptr, ptr %8, align 8
  %21 = getelementptr inbounds i8, ptr %20, i64 16
  %22 = load i8, ptr %21, align 8
  %23 = trunc i8 %22 to i1
  br i1 %23, label %24, label %_ZNK5osgeo4proj11coordinates18CoordinateMetadata28coordinateEpochAsDecimalYearEv.exit

24:                                               ; preds = %19
  %25 = getelementptr inbounds i8, ptr %20, i64 24
  %26 = invoke noundef nonnull align 8 dereferenceable(24) ptr @_ZNK5osgeo4proj6common9DataEpoch15coordinateEpochEv(ptr noundef nonnull align 8 dereferenceable(8) %25)
          to label %27 unwind label %30

27:                                               ; preds = %24
  %28 = tail call noundef double @_ZNK5osgeo4proj6common7Measure13convertToUnitERKNS1_13UnitOfMeasureE(ptr noundef nonnull align 8 dereferenceable(24) %26, ptr noundef nonnull align 8 dereferenceable(24) @_ZN5osgeo4proj6common13UnitOfMeasure4YEARE) #20
  %29 = invoke noundef double @_ZN5osgeo4proj8internal28getRoundedEpochInDecimalYearEd(double noundef %28)
          to label %_ZNK5osgeo4proj11coordinates18CoordinateMetadata28coordinateEpochAsDecimalYearEv.exit unwind label %30

30:                                               ; preds = %27, %24
  %31 = landingpad { ptr, i32 }
          catch ptr null
  %32 = extractvalue { ptr, i32 } %31, 0
  tail call void @__clang_call_terminate(ptr %32) #19
  unreachable

_ZNK5osgeo4proj11coordinates18CoordinateMetadata28coordinateEpochAsDecimalYearEv.exit: ; preds = %19, %27
  %.0.i = phi double [ %29, %27 ], [ 0x7FF8000000000000, %19 ]
  tail call void @_ZN5osgeo4proj2io12WKTFormatter3addEdi(ptr noundef nonnull align 8 dereferenceable(8) %1, double noundef %.0.i, i32 noundef 15)
  tail call void @_ZN5osgeo4proj2io12WKTFormatter7endNodeEv(ptr noundef nonnull align 8 dereferenceable(8) %1)
  br label %33

33:                                               ; preds = %_ZNK5osgeo4proj11coordinates18CoordinateMetadata28coordinateEpochAsDecimalYearEv.exit, %7
  tail call void @_ZN5osgeo4proj2io12WKTFormatter7endNodeEv(ptr noundef nonnull align 8 dereferenceable(8) %1)
  ret void
}